; Function Attrs: mustprogress uwtable
define dso_local noundef i32 @_ZNK4absl4Cord7CompareESt17basic_string_viewIcSt11char_traitsIcEE(ptr noundef nonnull align 8 dereferenceable(16) %0, i64 %1, ptr %2) local_unnamed_addr #3 align 2 {
  %4 = alloca %"class.std::basic_string_view", align 8
  store i64 %1, ptr %4, align 8
  %5 = getelementptr inbounds nuw i8, ptr %4, i64 8
  store ptr %2, ptr %5, align 8
  %6 = load i8, ptr %0, align 8, !tbaa !13
  %7 = and i8 %6, 1
  %.not.i.i.i = icmp eq i8 %7, 0
  br i1 %.not.i.i.i, label %12, label %8

8:                                                ; preds = %3
  %9 = getelementptr inbounds nuw i8, ptr %0, i64 8
  %10 = load ptr, ptr %9, align 8, !tbaa !13
  %11 = load i64, ptr %10, align 8, !tbaa !22
  br label %_ZNK4absl4Cord4sizeEv.exit.i

12:                                               ; preds = %3
  %13 = sext i8 %6 to i64
  %14 = lshr exact i64 %13, 1
  br label %_ZNK4absl4Cord4sizeEv.exit.i

_ZNK4absl4Cord4sizeEv.exit.i:                     ; preds = %12, %8
  %15 = phi i64 [ %11, %8 ], [ %14, %12 ]
  %16 = icmp eq i64 %15, %1
  br i1 %16, label %17, label %19

17:                                               ; preds = %_ZNK4absl4Cord4sizeEv.exit.i
  %18 = call noundef i32 @_ZN4absl14GenericCompareIiSt17basic_string_viewIcSt11char_traitsIcEEEET_RKNS_4CordERKT0_m(ptr noundef nonnull align 8 dereferenceable(16) %0, ptr noundef nonnull align 8 dereferenceable(16) %4, i64 noundef %1)
  br label %_ZN4absl17SharedCompareImplISt17basic_string_viewIcSt11char_traitsIcEEEEiRKNS_4CordERKT_.exit

19:                                               ; preds = %_ZNK4absl4Cord4sizeEv.exit.i
  %20 = icmp ult i64 %15, %1
  br i1 %20, label %21, label %25

21:                                               ; preds = %19
  %22 = call noundef i32 @_ZN4absl14GenericCompareIiSt17basic_string_viewIcSt11char_traitsIcEEEET_RKNS_4CordERKT0_m(ptr noundef nonnull align 8 dereferenceable(16) %0, ptr noundef nonnull align 8 dereferenceable(16) %4, i64 noundef %15)
  %23 = icmp eq i32 %22, 0
  %24 = select i1 %23, i32 -1, i32 %22
  br label %_ZN4absl17SharedCompareImplISt17basic_string_viewIcSt11char_traitsIcEEEEiRKNS_4CordERKT_.exit

25:                                               ; preds = %19
  %26 = call noundef i32 @_ZN4absl14GenericCompareIiSt17basic_string_viewIcSt11char_traitsIcEEEET_RKNS_4CordERKT0_m(ptr noundef nonnull align 8 dereferenceable(16) %0, ptr noundef nonnull align 8 dereferenceable(16) %4, i64 noundef %1)
  %27 = call i32 @llvm.umax.i32(i32 %26, i32 1)
  br label %_ZN4absl17SharedCompareImplISt17basic_string_viewIcSt11char_traitsIcEEEEiRKNS_4CordERKT_.exit

_ZN4absl17SharedCompareImplISt17basic_string_viewIcSt11char_traitsIcEEEEiRKNS_4CordERKT_.exit: ; preds = %17, %21, %25
  %.0.i = phi i32 [ %18, %17 ], [ %24, %21 ], [ %27, %25 ]
  ret i32 %.0.i
}